(lp0
(lp1
cnumpy.core.multiarray
scalar
p2
(cnumpy
dtype
p3
(S'f8'
p4
I0
I1
tp5
Rp6
(I3
S'<'
p7
NNNI-1
I-1
I0
tp8
bS'\x9b\x99\x99\x99\x99\x99\x05@'
p9
tp10
Rp11
aF1.2074767078498865
aa(lp12
g2
(g6
S'\xab\xaa\xaa\xaa\xaa\xeaZ@'
p13
tp14
Rp15
aF52.162140378716146
aa(lp16
g2
(g6
S'\xb7m\xfa\xdf\x87\xa7"@'
p17
tp18
Rp19
aF1.5185603984747469
aa(lp20
g2
(g6
S'/\xcfp\xf0r^\xeb?'
p21
tp22
Rp23
aF0.19284817306042354
aa(lp24
g2
(g6
S'\xccZ\x1d\x13<\xf8\x18@'
p25
tp26
Rp27
aF1.7292843152748352
aa(lp28
g2
(g6
S'\xdf\xdd\xdd\xdd\xdd\xdd\x07@'
p29
tp30
Rp31
aF1.6144314444685746
aa.